target datalayout = "e-m:e-p270:32:32-p271:32:32-p272:64:64-i64:64-i128:128-f80:128-n8:16:32:64-S128"
target triple = "x86_64-pc-linux-gnu"

%class.QPointer = type { %class.QWeakPointer }
%class.QWeakPointer = type { ptr, ptr }
%class.QString = type { %struct.QArrayDataPointer }
%struct.QArrayDataPointer = type { ptr, ptr, i64 }
%class.QSharedPointer = type { ptr, ptr }
%class.IOGraphDialog = type { %class.WiresharkDialog.base, ptr, ptr, %class.QPointer, ptr, %class.QList.5, %class.QString, ptr, ptr, i32, %struct.nstime_t, i8, ptr, %class.QPoint, %class.QMenu, ptr, i8, i8, i8, i8, i32, %class.QSharedPointer, %class.QSharedPointer.9 }
%class.WiresharkDialog.base = type <{ %class.GeometryStateDialog, ptr, i8, [7 x i8], %class.QString, %class.QList.1, i32, i8 }>
%class.GeometryStateDialog = type { %class.QDialog, %class.QString, ptr }
%class.QDialog = type { %class.QWidget }
%class.QWidget = type { %class.QObject, %class.QPaintDevice.base, ptr }
%class.QObject = type { ptr, %class.QScopedPointer }
%class.QScopedPointer = type { ptr }
%class.QPaintDevice.base = type <{ ptr, i16 }>
%class.QList.1 = type { %struct.QArrayDataPointer.4 }
%struct.QArrayDataPointer.4 = type { ptr, ptr, i64 }
%class.QList.5 = type { %struct.QArrayDataPointer.8 }
%struct.QArrayDataPointer.8 = type { ptr, ptr, i64 }
%struct.nstime_t = type { i64, i32 }
%class.QPoint = type { i32, i32 }
%class.QMenu = type { %class.QWidget }
%class.QSharedPointer.9 = type { ptr, ptr }
%class.QBasicAtomicInteger = type { %"struct.std::atomic" }
%"struct.std::atomic" = type { %"struct.std::__atomic_base" }
%"struct.std::__atomic_base" = type { i32 }
%"struct.QtSharedPointer::ExternalRefCountData" = type { %class.QBasicAtomicInteger, %class.QBasicAtomicInteger, ptr }

@.str.258 = private unnamed_addr constant [88 x i8] c"generated/usr/lib/gcc/x86_64-linux-gnu/12/../../../../include/c++/12/bits/atomic_base.h\00", align 1
@__PRETTY_FUNCTION__._ZNKSt13__atomic_baseIiE4loadESt12memory_order = private unnamed_addr constant [74 x i8] c"__int_type std::__atomic_base<int>::load(memory_order) const [_ITp = int]\00", align 1
@.str.259 = private unnamed_addr constant [28 x i8] c"__b != memory_order_release\00", align 1
@.str.260 = private unnamed_addr constant [28 x i8] c"__b != memory_order_acq_rel\00", align 1

; Function Attrs: noinline noreturn nounwind null_pointer_is_valid sspstrong uwtable
define linkonce_odr hidden void @__clang_call_terminate(ptr noundef %0) #11 comdat {
  %2 = call ptr @__cxa_begin_catch(ptr %0) #2
  call void @_ZSt9terminatev() #33
  unreachable
}

; Function Attrs: mustprogress nounwind null_pointer_is_valid sspstrong uwtable
define linkonce_odr noundef i32 @_ZStanSt12memory_orderSt23__memory_order_modifier(i32 noundef %0, i32 noundef %1) #7 comdat {
  %3 = alloca i32, align 4
  %4 = alloca i32, align 4
  store i32 %0, ptr %3, align 4
  store i32 %1, ptr %4, align 4
  %5 = load i32, ptr %3, align 4
  %6 = load i32, ptr %4, align 4
  %7 = and i32 %5, %6
  ret i32 %7
}

; Function Attrs: alwaysinline mustprogress nounwind null_pointer_is_valid sspstrong uwtable
define linkonce_odr noundef i32 @_ZNKSt13__atomic_baseIiE4loadESt12memory_order(ptr noundef align 4 dereferenceable_or_null(4) %0, i32 noundef %1) #14 comdat align 2 personality ptr @__gxx_personality_v0 {
  %3 = alloca ptr, align 8
  %4 = alloca i32, align 4
  %5 = alloca i32, align 4
  %6 = alloca i32, align 4
  store ptr %0, ptr %3, align 8
  store i32 %1, ptr %4, align 4
  %7 = load ptr, ptr %3, align 8
  call void @llvm.lifetime.start.p0(i64 4, ptr %5) #2
  %8 = load i32, ptr %4, align 4
  %9 = invoke noundef i32 @_ZStanSt12memory_orderSt23__memory_order_modifier(i32 noundef %8, i32 noundef 65535)
          to label %10 unwind label %43

10:                                               ; preds = %2
  store i32 %9, ptr %5, align 4
  br label %11

11:                                               ; preds = %10
  %12 = load i32, ptr %5, align 4
  %13 = icmp ne i32 %12, 3
  %14 = xor i1 %13, true
  %15 = zext i1 %14 to i64
  %16 = call i64 @llvm.expect.i64(i64 %15, i64 0)
  %17 = icmp ne i64 %16, 0
  br i1 %17, label %18, label %19

18:                                               ; preds = %11
  call void @_ZSt21__glibcxx_assert_failPKciS0_S0_(ptr noundef @.str.258, i32 noundef 485, ptr noundef @__PRETTY_FUNCTION__._ZNKSt13__atomic_baseIiE4loadESt12memory_order, ptr noundef @.str.259) #33
  unreachable

19:                                               ; preds = %11
  br label %20

20:                                               ; preds = %19
  br label %21

21:                                               ; preds = %20
  br label %22

22:                                               ; preds = %21
  %23 = load i32, ptr %5, align 4
  %24 = icmp ne i32 %23, 4
  %25 = xor i1 %24, true
  %26 = zext i1 %25 to i64
  %27 = call i64 @llvm.expect.i64(i64 %26, i64 0)
  %28 = icmp ne i64 %27, 0
  br i1 %28, label %29, label %30

29:                                               ; preds = %22
  call void @_ZSt21__glibcxx_assert_failPKciS0_S0_(ptr noundef @.str.258, i32 noundef 486, ptr noundef @__PRETTY_FUNCTION__._ZNKSt13__atomic_baseIiE4loadESt12memory_order, ptr noundef @.str.260) #33
  unreachable

30:                                               ; preds = %22
  br label %31

31:                                               ; preds = %30
  br label %32

32:                                               ; preds = %31
  %33 = getelementptr inbounds nuw %"struct.std::__atomic_base", ptr %7, i32 0, i32 0
  %34 = load i32, ptr %4, align 4
  switch i32 %34, label %35 [
    i32 1, label %37
    i32 2, label %37
    i32 5, label %39
  ]

35:                                               ; preds = %32
  %36 = load atomic i32, ptr %33 monotonic, align 4
  store i32 %36, ptr %6, align 4
  br label %41

37:                                               ; preds = %32, %32
  %38 = load atomic i32, ptr %33 acquire, align 4
  store i32 %38, ptr %6, align 4
  br label %41

39:                                               ; preds = %32
  %40 = load atomic i32, ptr %33 seq_cst, align 4
  store i32 %40, ptr %6, align 4
  br label %41

41:                                               ; preds = %39, %37, %35
  %42 = load i32, ptr %6, align 4
  call void @llvm.lifetime.end.p0(i64 4, ptr %5) #2
  ret i32 %42

43:                                               ; preds = %2
  %44 = landingpad { ptr, i32 }
          catch ptr null
  %45 = extractvalue { ptr, i32 } %44, 0
  call void @__clang_call_terminate(ptr %45) #33
  unreachable
}

; Function Attrs: inlinehint mustprogress nounwind null_pointer_is_valid sspstrong uwtable
define linkonce_odr noundef i32 @_ZN10QAtomicOpsIiE11loadRelaxedIiEET_RKSt6atomicIS2_E(ptr noundef align 4 dereferenceable(4) %0) #1 comdat align 2 {
  %2 = alloca ptr, align 8
  store ptr %0, ptr %2, align 8
  %3 = load ptr, ptr %2, align 8
  %4 = call noundef i32 @_ZNKSt13__atomic_baseIiE4loadESt12memory_order(ptr noundef align 4 dereferenceable_or_null(4) %3, i32 noundef 0) #2
  ret i32 %4
}

; Function Attrs: mustprogress nounwind null_pointer_is_valid sspstrong uwtable
define linkonce_odr noundef i32 @_ZNK19QBasicAtomicIntegerIiE11loadRelaxedEv(ptr noundef align 4 dereferenceable_or_null(4) %0) #7 comdat align 2 {
  %2 = alloca ptr, align 8
  store ptr %0, ptr %2, align 8
  %3 = load ptr, ptr %2, align 8
  %4 = getelementptr inbounds nuw %class.QBasicAtomicInteger, ptr %3, i32 0, i32 0
  %5 = call noundef i32 @_ZN10QAtomicOpsIiE11loadRelaxedIiEET_RKSt6atomicIS2_E(ptr noundef align 4 dereferenceable(4) %4) #2
  ret i32 %5
}

; Function Attrs: inlinehint mustprogress nounwind null_pointer_is_valid sspstrong uwtable
define linkonce_odr noundef ptr @_ZNK12QWeakPointerI7QObjectE12internalDataEv(ptr noundef align 8 dereferenceable_or_null(16) %0) #1 comdat align 2 {
  %2 = alloca ptr, align 8
  store ptr %0, ptr %2, align 8
  %3 = load ptr, ptr %2, align 8
  %4 = getelementptr inbounds nuw %class.QWeakPointer, ptr %3, i32 0, i32 0
  %5 = load ptr, ptr %4, align 8
  %6 = icmp eq ptr %5, null
  br i1 %6, label %13, label %7

7:                                                ; preds = %1
  %8 = getelementptr inbounds nuw %class.QWeakPointer, ptr %3, i32 0, i32 0
  %9 = load ptr, ptr %8, align 8
  %10 = getelementptr inbounds nuw %"struct.QtSharedPointer::ExternalRefCountData", ptr %9, i32 0, i32 1
  %11 = call noundef i32 @_ZNK19QBasicAtomicIntegerIiE11loadRelaxedEv(ptr noundef align 4 dereferenceable_or_null(4) %10) #2
  %12 = icmp eq i32 %11, 0
  br i1 %12, label %13, label %14

13:                                               ; preds = %7, %1
  br label %17

14:                                               ; preds = %7
  %15 = getelementptr inbounds nuw %class.QWeakPointer, ptr %3, i32 0, i32 1
  %16 = load ptr, ptr %15, align 8
  br label %17

17:                                               ; preds = %14, %13
  %18 = phi ptr [ null, %13 ], [ %16, %14 ]
  ret ptr %18
}

; Function Attrs: inlinehint mustprogress nounwind null_pointer_is_valid sspstrong uwtable
define linkonce_odr noundef ptr @_ZNK8QPointerI8UatModelE4dataEv(ptr noundef align 8 dereferenceable_or_null(16) %0) #1 comdat align 2 {
  %2 = alloca ptr, align 8
  store ptr %0, ptr %2, align 8
  %3 = load ptr, ptr %2, align 8
  %4 = getelementptr inbounds nuw %class.QPointer, ptr %3, i32 0, i32 0
  %5 = call noundef ptr @_ZNK12QWeakPointerI7QObjectE12internalDataEv(ptr noundef align 8 dereferenceable_or_null(16) %4) #2
  ret ptr %5
}

; Function Attrs: inlinehint mustprogress null_pointer_is_valid sspstrong uwtable
define linkonce_odr noundef ptr @_ZNK8QPointerI8UatModelEcvPS0_Ev(ptr noundef align 8 dereferenceable_or_null(16) %0) #6 comdat align 2 {
  %2 = alloca ptr, align 8
  store ptr %0, ptr %2, align 8
  %3 = load ptr, ptr %2, align 8
  %4 = call noundef ptr @_ZNK8QPointerI8UatModelE4dataEv(ptr noundef align 8 dereferenceable_or_null(16) %3)
  ret ptr %4
}

; Function Attrs: mustprogress null_pointer_is_valid sspstrong uwtable
define void @_ZN13IOGraphDialog6rejectEv(ptr noundef align 8 dereferenceable_or_null(384) %0) unnamed_addr #3 align 2 {
  %2 = alloca ptr, align 8
  store ptr %0, ptr %2, align 8
  %3 = load ptr, ptr %2, align 8
  %4 = getelementptr inbounds nuw %class.IOGraphDialog, ptr %3, i32 0, i32 3
  %5 = call noundef ptr @_ZNK8QPointerI8UatModelEcvPS0_Ev(ptr noundef align 8 dereferenceable_or_null(16) %4)
  %6 = icmp ne ptr %5, null
  br i1 %6, label %7, label %8

7:                                                ; preds = %1
  call void @_ZN13IOGraphDialog12applyChangesEv()
  br label %8

8:                                                ; preds = %7, %1
  call void @_ZN7QDialog6rejectEv(ptr noundef align 8 dereferenceable_or_null(40) %3)
  ret void
}