; Function Attrs: mustprogress null_pointer_is_valid sspstrong uwtable
define void @_ZN13IOGraphDialog6rejectEv(ptr noundef align 8 dereferenceable_or_null(384) %0) unnamed_addr #2 align 2 personality ptr @__gxx_personality_v0 {
  %2 = getelementptr inbounds nuw i8, ptr %0, i64 160
  %3 = load ptr, ptr %2, align 8
  %4 = icmp eq ptr %3, null
  br i1 %4, label %_ZNK8QPointerI8UatModelEcvPS0_Ev.exit.thread, label %5

5:                                                ; preds = %1
  %6 = getelementptr inbounds nuw i8, ptr %3, i64 4
  %7 = load atomic i32, ptr %6 monotonic, align 4
  %8 = icmp eq i32 %7, 0
  br i1 %8, label %_ZNK8QPointerI8UatModelEcvPS0_Ev.exit.thread, label %_ZNK8QPointerI8UatModelEcvPS0_Ev.exit

_ZNK8QPointerI8UatModelEcvPS0_Ev.exit:            ; preds = %5
  %9 = getelementptr inbounds nuw i8, ptr %0, i64 168
  %10 = load ptr, ptr %9, align 8
  %.not = icmp eq ptr %10, null
  br i1 %.not, label %_ZNK8QPointerI8UatModelEcvPS0_Ev.exit.thread, label %11

11:                                               ; preds = %_ZNK8QPointerI8UatModelEcvPS0_Ev.exit
  tail call void @_ZN13IOGraphDialog12applyChangesEv()
  br label %_ZNK8QPointerI8UatModelEcvPS0_Ev.exit.thread

_ZNK8QPointerI8UatModelEcvPS0_Ev.exit.thread:     ; preds = %1, %5, %11, %_ZNK8QPointerI8UatModelEcvPS0_Ev.exit
  tail call void @_ZN7QDialog6rejectEv(ptr noundef align 8 dereferenceable_or_null(40) %0)
  ret void
}